; Function Attrs: mustprogress nofree norecurse nosync nounwind willreturn memory(argmem: readwrite) uwtable
define internal noundef zeroext i1 @"_ZNSt17_Function_handlerIFmvEZN7rocksdb15BlobFileBuilderC1EPNS1_10VersionSetEPNS1_10FileSystemEPKNS1_16ImmutableOptionsEPKNS1_16MutableCFOptionsEPKNS1_11FileOptionsENSt7__cxx1112basic_stringIcSt11char_traitsIcESaIcEEESL_ijRKSL_NS1_3Env10IOPriorityENSO_17WriteLifeTimeHintERKSt10shared_ptrINS1_8IOTracerEEPNS1_26BlobFileCompletionCallbackENS1_22BlobFileCreationReasonEPSt6vectorISL_SaISL_EEPSZ_INS1_16BlobFileAdditionESaIS13_EEE3$_0E10_M_managerERSt9_Any_dataRKS19_St18_Manager_operation"(ptr nocapture noundef nonnull writeonly align 8 dereferenceable(16) %__dest, ptr noundef nonnull align 8 dereferenceable(16) %__source, i32 noundef %__op) #13 align 2 personality ptr @__gxx_personality_v0 {
entry:
  switch i32 %__op, label %sw.epilog [
    i32 1, label %sw.bb
    i32 0, label %sw.bb.i
    i32 2, label %sw.bb4.i
  ]

sw.bb:                                            ; preds = %entry
  store ptr %__source, ptr %__dest, align 8
  br label %sw.epilog

sw.bb.i:                                          ; preds = %entry
  store ptr null, ptr %__dest, align 8
  br label %sw.epilog

sw.bb4.i:                                         ; preds = %entry
  %__source.val = load i64, ptr %__source, align 8
  store i64 %__source.val, ptr %__dest, align 8
  br label %sw.epilog

sw.epilog:                                        ; preds = %entry, %sw.bb4.i, %sw.bb.i, %sw.bb
  ret i1 false
}